target datalayout = "e-m:e-p270:32:32-p271:32:32-p272:64:64-i64:64-i128:128-f80:128-n8:16:32:64-S128"
target triple = "x86_64-pc-linux-gnu"

; Function Attrs: mustprogress nounwind uwtable
define internal noundef i64 @_ZN4llvm6objectL13resolveMips32Emmmml(i64 noundef %0, i64 noundef %1, i64 noundef %2, i64 noundef %3, i64 noundef %4) #0 {
  %6 = alloca i64, align 8
  %7 = alloca i64, align 8
  %8 = alloca i64, align 8
  %9 = alloca i64, align 8
  %10 = alloca i64, align 8
  %11 = alloca i64, align 8
  store i64 %0, ptr %7, align 8
  store i64 %1, ptr %8, align 8
  store i64 %2, ptr %9, align 8
  store i64 %3, ptr %10, align 8
  store i64 %4, ptr %11, align 8
  %12 = load i64, ptr %7, align 8
  %13 = icmp eq i64 %12, 2
  br i1 %13, label %14, label %19

14:                                               ; preds = %5
  %15 = load i64, ptr %9, align 8
  %16 = load i64, ptr %10, align 8
  %17 = add i64 %15, %16
  %18 = and i64 %17, 4294967295
  store i64 %18, ptr %6, align 8
  br label %28

19:                                               ; preds = %5
  %20 = load i64, ptr %7, align 8
  %21 = icmp eq i64 %20, 39
  br i1 %21, label %22, label %27

22:                                               ; preds = %19
  %23 = load i64, ptr %9, align 8
  %24 = load i64, ptr %10, align 8
  %25 = add i64 %23, %24
  %26 = and i64 %25, 4294967295
  store i64 %26, ptr %6, align 8
  br label %28

27:                                               ; preds = %19
  unreachable

28:                                               ; preds = %22, %14
  %29 = load i64, ptr %6, align 8
  ret i64 %29
}