; Function Attrs: mustprogress nofree norecurse nosync nounwind willreturn memory(inaccessiblemem: write) uwtable
define internal noundef range(i64 0, 4294967296) i64 @_ZN4llvm6objectL13resolveMips32Emmmml(i64 noundef %0, i64 %1, i64 noundef %2, i64 noundef %3, i64 %4) #2 {
  %6 = icmp eq i64 %0, 2
  br i1 %6, label %9, label %7

7:                                                ; preds = %5
  %8 = icmp eq i64 %0, 39
  tail call void @llvm.assume(i1 %8)
  br label %9

9:                                                ; preds = %5, %7
  %.0.in = add i64 %3, %2
  %.0 = and i64 %.0.in, 4294967295
  ret i64 %.0
}